(dp1
S'[U:1:374663321]'
p2
(dp3
S'case'
p4
I0
sS'settings_speedmeter'
p5
I1
sS'spectators'
p6
(lp7
sS'settings_flashbangs'
p8
I0
sS'zone'
p9
NsS'settings_macro'
p10
I0
sS'last_spec'
p11
I-1
sS'settings_hudhint'
p12
I1
sS'disabled'
p13
I0
sS'settings_strafes'
p14
I1
sS'now_spec'
p15
I-1
sS'settings_jumps'
p16
I0
sS'timer_id'
p17
NsS'disabled_keyhint'
p18
I0
sS'partner'
p19
NsS'spec_display'
p20
S''
sS'id'
p21
NsS'text_display'
p22
S''
sS'spec_list'
p23
(lp24
ssS'BOT'
p25
(dp26
g4
I0
sg5
I1
sg6
(lp27
sg8
I0
sg9
Nsg10
I0
sg11
I-1
sg12
I1
sg13
I0
sg14
I1
sg15
I-1
sg16
I0
sg17
Nsg18
I0
sg19
Nsg20
S''
sg21
Nsg22
S''
sg23
(lp28
ssS'[U:1:135236385]'
p29
(dp30
g4
I0
sg5
I1
sg6
(lp31
sg8
I0
sg9
Nsg10
I0
sg11
I-1
sg12
I1
sg13
I0
sg14
I1
sg15
I-1
sg16
I0
sg17
Nsg18
I0
sg19
Nsg20
S''
sg21
Nsg22
S''
sg23
(lp32
ss.