(dp1
S'[U:1:79409345]'
p2
(dp3
S'ignored'
p4
(lp5
sS'auto_switch'
p6
S'On'
p7
sS'view_angle_2'
p8
(I0
I0
I0
tp9
sS'player_state'
p10
S'Block'
p11
sS'tp_accept'
p12
I0
sS'bot_jump'
p13
S'Yes'
p14
sS'tp_location'
p15
NsS'save_speed'
p16
(I0
I0
I0
tp17
sS'partner'
p18
S'Nobody'
p19
sS'auto_flash'
p20
g7
sS'auto_jump'
p21
g7
sS'auto_stuck'
p22
g7
sS'esp'
p23
S'Off'
p24
sS'bot_style'
p25
S'Normal'
p26
sS'time_elapsed'
p27
I0
sS'save_speed_stack'
p28
I0
sS'pratice_mode'
p29
I0
sS'view_angles'
p30
I00
sS'save_speed_2'
p31
I0
sS'stop_speed'
p32
g24
sS'bot_crouch'
p33
S'No'
p34
sS'best_x'
p35
I1
sS'last_k'
p36
I0
sS'snapshot_2'
p37
(I0
I0
I0
tp38
sS'tp_userid'
p39
NsS'view_angle'
p40
(I0
I0
I0
tp41
sS'bot_firstboost'
p42
S'ML'
p43
sS'strafe_sync'
p44
g24
sS'save_speed_stack_2'
p45
I0
sS'spam'
p46
I0
sS'ignore_list'
p47
(lp48
sS'check_stuck'
p49
I1
sS'x_mh'
p50
I1
sS'save_angles'
p51
g24
sS'time'
p52
I0
sS'x'
I1
sS'snapshot_1'
p53
(I0
I0
I0
tp54
ssS'[U:1:117605171]'
p55
(dp56
g4
(lp57
sg6
g7
sg8
g9
sg10
g11
sg12
I0
sg13
g14
sg15
Nsg16
g17
sg18
g19
sg20
g7
sg21
g7
sg22
g7
sg23
g24
sg25
g26
sg27
I0
sg28
I0
sg29
I0
sg30
I00
sg31
I0
sg32
g24
sg33
g34
sg35
I1
sg36
I0
sg37
g38
sg39
Nsg40
g41
sg42
g43
sg44
g24
sg45
I0
sg46
I0
sg47
(lp58
sg49
I1
sg50
I1
sg51
g24
sg52
I0
sS'x'
I1
sg53
g54
ssS'[U:1:222560997]'
p59
(dp60
g4
(lp61
sg6
g7
sg8
g9
sg10
S'Ghost'
p62
sg12
I0
sg13
g14
sg15
Nsg16
(F87.818435668945312
F2346.183349609375
F-82.096900939941406
tp63
sg18
g19
sg20
g7
sg21
g7
sg22
g7
sg23
g24
sg25
g26
sg27
I0
sg28
I0
sg29
I0
sg30
(F28.709606170654297
F86.860260009765625
F0
tp64
sg31
(F1.1045198440551758
F-2.8954830169677734
F0
tp65
sg32
g7
sg33
g34
sg35
I1
sg36
I0
sg37
(F5013.26953125
F3557.97412109375
F1016.03125
tp66
sg39
Nsg40
g41
sg42
g43
sg44
g24
sg45
I0
sg46
I0
sg47
(lp67
sg49
I1
sg50
I1
sg51
g7
sg52
F1486492836.953562
sS'x'
I1
sg53
(F-11993.9658203125
F-5949.0361328125
F2720.576904296875
tp68
sS'view_angles_2'
p69
(F31.152490615844727
F1.8715614080429077
F0
tp70
ssS'[U:1:61806594]'
p71
(dp72
g4
(lp73
sg6
g7
sg8
g9
sg10
g11
sg12
I0
sg13
g14
sg15
Nsg16
g17
sg18
g19
sg20
g7
sg21
g7
sg22
g7
sg23
g24
sg25
g26
sg27
I0
sg28
I0
sg29
I0
sg30
I00
sg31
I0
sg32
g24
sg33
g34
sg35
I1
sg36
I0
sg37
g38
sg39
Nsg40
g41
sg42
g43
sg44
g24
sg45
I0
sg46
I0
sg47
(lp74
sg49
I1
sg50
I1
sg51
g24
sg52
I0
sS'x'
I1
sg53
g54
ssS'BOT'
p75
(dp76
g4
(lp77
sg6
g7
sg8
g9
sg10
g11
sg12
I0
sg13
g14
sg15
Nsg16
g17
sg18
g19
sg20
g7
sg21
g7
sg22
g7
sg23
g24
sg25
g26
sg27
I0
sg28
I0
sg29
I0
sg30
I00
sg31
I0
sg32
g24
sg33
g34
sg35
I1
sg36
I0
sg37
g38
sg39
Nsg40
g41
sg42
g43
sg44
g24
sg45
I0
sg46
I0
sg47
(lp78
sg49
I1
sg50
I1
sg51
g24
sg52
I0
sS'x'
I1
sg53
g54
ssS'[U:1:205045939]'
p79
(dp80
g4
(lp81
sg6
g7
sg8
g9
sg10
g62
sg12
I0
sg13
g14
sg15
Nsg16
(F-217.73497009277344
F732.2701416015625
F-100.03000640869141
tp82
sg18
g19
sg20
g7
sg21
g7
sg22
g7
sg23
g24
sg25
g26
sg27
I0
sg28
I0
sg29
I0
sg30
(F15.443958282470703
F108.80998992919922
F0
tp83
sg31
I0
sg32
g7
sg33
g34
sg35
I1
sg36
I0
sg37
g38
sg39
Nsg40
g41
sg42
g43
sg44
g24
sg45
I0
sg46
I0
sg47
(lp84
sg49
I1
sg50
I1
sg51
g7
sg52
F1486421873.2686291
sS'x'
I1
sg53
(F1357.9515380859375
F-514.43695068359375
F4.2730236053466797
tp85
ssS'[U:1:154825517]'
p86
(dp87
g4
(lp88
sg6
g7
sg8
g9
sg10
g11
sg12
I0
sg13
g14
sg15
Nsg16
(F0
F0
F0
tp89
sg18
g19
sg20
g7
sg21
g7
sg22
g7
sg23
g24
sg25
g26
sg27
I0
sg28
I0
sg29
I0
sg30
(F27.719997406005859
F2.5080490112304688
F0
tp90
sg31
(F0
F0
F0
tp91
sg32
g24
sg33
g34
sg35
I1
sg36
I0
sg37
(F10004.1220703125
F4435.28857421875
F2132.5625
tp92
sg39
Nsg40
g41
sg42
g43
sg44
g24
sg45
I0
sg46
I0
sg47
(lp93
sg49
I1
sg50
I1
sg51
g24
sg52
F1486392736.472755
sS'x'
I1
sg53
(F8011.1318359375
F1806.215087890625
F-855.96875
tp94
sg69
(F69.563934326171875
F270.16876220703125
F0
tp95
ssS'[U:1:191975878]'
p96
(dp97
g4
(lp98
sg6
g7
sg8
g9
sg10
g11
sg12
I0
sg13
g14
sg15
Nsg16
g17
sg18
g19
sg20
g7
sg21
g7
sg22
g7
sg23
g24
sg25
g26
sg27
I0
sg28
I0
sg29
I0
sg30
I00
sg31
I0
sg32
g24
sg33
g34
sg35
I1
sg36
I0
sg37
g38
sg39
Nsg40
g41
sg42
g43
sg44
g24
sg45
I0
sg46
I0
sg47
(lp99
sg49
I1
sg50
I1
sg51
g24
sg52
I0
sS'x'
I1
sg53
g54
ssS'[U:1:280084644]'
p100
(dp101
g4
(lp102
sg6
g7
sg8
g9
sg10
g62
sg12
I0
sg13
g14
sg15
Nsg16
g17
sg18
g19
sg20
g7
sg21
g7
sg22
g7
sg23
g24
sg25
g26
sg27
I0
sg28
I0
sg29
I0
sg30
I00
sg31
I0
sg32
g24
sg33
g34
sg35
I1
sg36
I0
sg37
g38
sg39
Nsg40
g41
sg42
g43
sg44
g24
sg45
I0
sg46
I0
sg47
(lp103
sg49
I1
sg50
I1
sg51
g24
sg52
I0
sS'x'
I1
sg53
g54
ssS'[U:1:374663321]'
p104
(dp105
g4
(lp106
sg6
g7
sg8
g9
sg10
g62
sg12
I0
sg13
g14
sg15
Nsg16
(F1067.1475830078125
F139.08354187011719
F237.2249755859375
tp107
sg18
g19
sg20
g7
sg21
g7
sg22
g7
sg23
g24
sg25
g26
sg27
I0
sg28
I0
sg29
I0
sg30
(F30.869911193847656
F5.8282051086425781
F0
tp108
sg31
(F1055.6796875
F23.048015594482422
F197.45404052734375
tp109
sg32
g7
sg33
g34
sg35
I1
sg36
I0
sg37
(F7600.380859375
F-4353.43701171875
F-6459.77197265625
tp110
sg39
Nsg40
g41
sg42
g43
sg44
g24
sg45
I0
sg46
I0
sg47
(lp111
sg49
I1
sg50
I1
sg51
g7
sg52
F1486492900.4633319
sS'x'
I1
sg53
(F7525.9033203125
F-4406.38720703125
F-6471.6455078125
tp112
sg69
(F32.466148376464844
F359.33665925264359
F0
tp113
ssS'[U:1:27013492]'
p114
(dp115
g4
(lp116
sg6
g7
sg8
g9
sg10
g11
sg12
I0
sg13
g14
sg15
Nsg16
(F0
F0
F0
tp117
sg18
g19
sg20
g7
sg21
g7
sg22
g7
sg23
g24
sg25
g26
sg27
I0
sg28
I0
sg29
I0
sg30
(F23.716012954711914
F359.80399468541145
F0
tp118
sg31
(F0
F0
F0
tp119
sg32
g24
sg33
g34
sg35
I1
sg36
I0
sg37
(F-2422.003173828125
F1889.9771728515625
F-433.9375
tp120
sg39
Nsg40
g41
sg42
g43
sg44
g24
sg45
I0
sg46
I0
sg47
(lp121
sg49
I1
sg50
I1
sg51
g24
sg52
F1486491586.4429309
sS'x'
I1
sg53
(F3430.8056640625
F4107.16357421875
F-815.980224609375
tp122
sg69
(F59.400066375732422
F345.77192306518555
F0
tp123
ssS'[U:1:77205727]'
p124
(dp125
g4
(lp126
sg6
g7
sg8
g9
sg10
g11
sg12
I0
sg13
g14
sg15
Nsg16
g17
sg18
g19
sg20
g7
sg21
g7
sg22
g7
sg23
g24
sg25
g26
sg27
I0
sg28
I0
sg29
I0
sg30
I00
sg31
I0
sg32
g24
sg33
g34
sg35
I1
sg36
I0
sg37
g38
sg39
Nsg40
g41
sg42
g43
sg44
g24
sg45
I0
sg46
I0
sg47
(lp127
sg49
I1
sg50
I1
sg51
g24
sg52
I0
sS'x'
I1
sg53
g54
ssS'[U:1:91105506]'
p128
(dp129
g4
(lp130
sg6
g7
sg8
g9
sg10
g11
sg12
I0
sg13
g14
sg15
Nsg16
g17
sg18
g19
sg20
g7
sg21
g7
sg22
g7
sg23
g24
sg25
g26
sg27
I0
sg28
I0
sg29
I0
sg30
I00
sg31
I0
sg32
g24
sg33
g34
sg35
I1
sg36
I0
sg37
g38
sg39
Nsg40
g41
sg42
g43
sg44
g24
sg45
I0
sg46
I0
sg47
(lp131
sg49
I1
sg50
I1
sg51
g24
sg52
I0
sS'x'
I1
sg53
g54
ssS'[U:1:145610720]'
p132
(dp133
g4
(lp134
sg6
g7
sg8
g9
sg10
g11
sg12
I1
sg13
g14
sg15
(F-2672.250244140625
F1180.6175537109375
F-433.9375
tp135
sg16
(F-46.897647857666016
F-15.502297401428223
F0
tp136
sg18
g19
sg20
g7
sg21
g7
sg22
g7
sg23
g24
sg25
g26
sg27
I0
sg28
I0
sg29
I0
sg30
(F23.433795928955078
F357.86684465408325
F0
tp137
sg31
(F0
F0
F0
tp138
sg32
g24
sg33
g34
sg35
I1
sg36
I0
sg37
(F6942.9189453125
F-7655.96875
F-2671.96875
tp139
sg39
I191
sg40
g41
sg42
g43
sg44
g24
sg45
I0
sg46
I0
sg47
(lp140
sg49
I1
sg50
I1
sg51
g7
sg52
F1486493854.6725559
sS'x'
I1
sg53
(F-12490.138671875
F9043.7080078125
F2327.03125
tp141
sg69
(F-5.5604991912841797
F89.372886657714844
F0
tp142
ssS'[U:1:159327547]'
p143
(dp144
g4
(lp145
sg6
g7
sg8
g9
sg10
g11
sg12
I0
sg13
g14
sg15
Nsg16
g17
sg18
g19
sg20
g7
sg21
g7
sg22
g7
sg23
g24
sg25
g26
sg27
I0
sg28
I0
sg29
I0
sg30
I00
sg31
I0
sg32
g24
sg33
g34
sg35
I1
sg36
I0
sg37
g38
sg39
Nsg40
g41
sg42
g43
sg44
g24
sg45
I0
sg46
I0
sg47
(lp146
sg49
I1
sg50
I1
sg51
g24
sg52
I0
sS'x'
I1
sg53
g54
ssS'[U:1:210566963]'
p147
(dp148
g4
(lp149
sg6
g7
sg8
g9
sg10
g11
sg12
I0
sg13
g14
sg15
Nsg16
g17
sg18
g19
sg20
g7
sg21
g7
sg22
g7
sg23
g24
sg25
g26
sg27
I0
sg28
I0
sg29
I0
sg30
I00
sg31
I0
sg32
g24
sg33
g34
sg35
I1
sg36
I0
sg37
g38
sg39
Nsg40
g41
sg42
g43
sg44
g24
sg45
I0
sg46
I0
sg47
(lp150
sg49
I1
sg50
I1
sg51
g24
sg52
I0
sS'x'
I1
sg53
g54
ssS'[U:1:66859681]'
p151
(dp152
g4
(lp153
sg6
g7
sg8
g9
sg10
g62
sg12
I0
sg13
g14
sg15
(F2929.843505859375
F-3438.8935546875
F1982.03125
tp154
sg16
(F0
F0
F0
tp155
sg18
g19
sg20
g7
sg21
g7
sg22
g7
sg23
g24
sg25
g26
sg27
I0
sg28
I0
sg29
I0
sg30
(F1.5840287208557129
F180.00784301757812
F0
tp156
sg31
(F0
F0
F0
tp157
sg32
g24
sg33
g34
sg35
I1
sg36
I0
sg37
(F5127.61865234375
F12319.96875
F864.03125
tp158
sg39
I117
sg40
g41
sg42
g43
sg44
g24
sg45
I0
sg46
I0
sg47
(lp159
sg49
I1
sg50
I1
sg51
g24
sg52
F1486448330.5101609
sS'x'
I1
sg53
(F3431.96875
F-8400.5673828125
F1296.03125
tp160
sg69
(F1.232003927230835
F274.13583374023438
F0
tp161
ssS'[U:1:10965174]'
p162
(dp163
g4
(lp164
sg6
g7
sg8
g9
sg10
g11
sg12
I0
sg13
g14
sg15
Nsg16
g17
sg18
g19
sg20
g7
sg21
g7
sg22
g7
sg23
g24
sg25
g26
sg27
I0
sg28
I0
sg29
I0
sg30
I00
sg31
I0
sg32
g24
sg33
g34
sg35
I1
sg36
I0
sg37
g38
sg39
Nsg40
g41
sg42
g43
sg44
g24
sg45
I0
sg46
I0
sg47
(lp165
sg49
I1
sg50
I1
sg51
g24
sg52
I0
sS'x'
I1
sg53
g54
ssS'[U:1:35099529]'
p166
(dp167
g4
(lp168
sg6
g7
sg8
g9
sg10
g11
sg12
I0
sg13
g14
sg15
Nsg16
g17
sg18
g19
sg20
g7
sg21
g7
sg22
g7
sg23
g24
sg25
g26
sg27
I0
sg28
I0
sg29
I0
sg30
I00
sg31
I0
sg32
g24
sg33
g34
sg35
I1
sg36
I0
sg37
g38
sg39
Nsg40
g41
sg42
g43
sg44
g24
sg45
I0
sg46
I0
sg47
(lp169
sg49
I1
sg50
I1
sg51
g24
sg52
I0
sS'x'
I1
sg53
g54
ssS'[U:1:235836218]'
p170
(dp171
g4
(lp172
sg6
g7
sg8
g9
sg10
g11
sg12
I0
sg13
g14
sg15
Nsg16
g17
sg18
g19
sg20
g7
sg21
g7
sg22
g7
sg23
g24
sg25
g26
sg27
I0
sg28
I0
sg29
I0
sg30
I00
sg31
I0
sg32
g24
sg33
g34
sg35
I1
sg36
I0
sg37
g38
sg39
Nsg40
g41
sg42
g43
sg44
g24
sg45
I0
sg46
I0
sg47
(lp173
sg49
I1
sg50
I1
sg51
g24
sg52
I0
sS'x'
I1
sg53
g54
ssS'[U:1:28848945]'
p174
(dp175
g4
(lp176
sg6
g7
sg8
g9
sg10
g11
sg12
I0
sg13
g14
sg15
(F-7502.646484375
F-862.79876708984375
F-13081.0556640625
tp177
sg16
(F-20.274412155151367
F-108.50388336181641
F0
tp178
sg18
g19
sg20
g7
sg21
g7
sg22
g7
sg23
g24
sg25
g26
sg27
I0
sg28
I0
sg29
I0
sg30
(F11.32032299041748
F61.121269226074219
F0
tp179
sg31
(F83.666847229003906
F-20.883329391479492
F0
tp180
sg32
g24
sg33
g34
sg35
I1
sg36
I0
sg37
(F-383.560791015625
F-1690.546142578125
F-159.96875
tp181
sg39
I82
sg40
g41
sg42
g43
sg44
g24
sg45
I0
sg46
I0
sg47
(lp182
sg49
I1
sg50
I1
sg51
g24
sg52
F1486413980.700722
sS'x'
I1
sg53
(F-835.74224853515625
F-1718.6513671875
F-159.96875
tp183
sg69
(F25.829771041870117
F105.34657287597656
F0
tp184
ssS'[U:1:217022357]'
p185
(dp186
g4
(lp187
sg6
g7
sg8
g9
sg10
g11
sg12
I0
sg13
g14
sg15
(F-2633.48779296875
F4779.3681640625
F-178.02890014648438
tp188
sg16
(F0
F0
F0
tp189
sg18
g19
sg20
g7
sg21
g7
sg22
g7
sg23
g24
sg25
g26
sg27
I0
sg28
I0
sg29
I0
sg30
(F37.092124938964844
F177.03594970703125
F0
tp190
sg31
I0
sg32
g24
sg33
g34
sg35
I1
sg36
I0
sg37
g38
sg39
I197
sg40
g41
sg42
g43
sg44
g24
sg45
I0
sg46
I0
sg47
(lp191
sg49
I1
sg50
I1
sg51
g24
sg52
F1486491586.6684339
sS'x'
I1
sg53
(F3634.926513671875
F4122.4013671875
F-815.96875
tp192
ssS'[U:1:73840212]'
p193
(dp194
g4
(lp195
sg6
g7
sg8
g9
sg10
g11
sg12
I1
sg13
g14
sg15
(F-2580.05712890625
F1002.3417358398438
F-495.96875
tp196
sg16
g17
sg18
g19
sg20
g7
sg21
g7
sg22
g7
sg23
g24
sg25
g26
sg27
I0
sg28
I0
sg29
I0
sg30
I00
sg31
I0
sg32
g24
sg33
g34
sg35
I1
sg36
I0
sg37
g38
sg39
I191
sg40
g41
sg42
g43
sg44
g24
sg45
I0
sg46
I0
sg47
(lp197
sg49
I1
sg50
I1
sg51
g24
sg52
I0
sS'x'
I1
sg53
g54
ssS'[U:1:171834239]'
p198
(dp199
g4
(lp200
sg6
g7
sg8
g9
sg10
g11
sg12
I0
sg13
g14
sg15
Nsg16
g17
sg18
g19
sg20
g7
sg21
g7
sg22
g7
sg23
g24
sg25
g26
sg27
I0
sg28
I0
sg29
I0
sg30
I00
sg31
I0
sg32
g24
sg33
g34
sg35
I1
sg36
I0
sg37
g38
sg39
Nsg40
g41
sg42
g43
sg44
g24
sg45
I0
sg46
I0
sg47
(lp201
sg49
I1
sg50
I1
sg51
g24
sg52
I0
sS'x'
I1
sg53
g54
ssS'[U:1:43719808]'
p202
(dp203
g4
(lp204
sg6
g7
sg8
g9
sg10
g11
sg12
I0
sg13
g14
sg15
Nsg16
(F39.319686889648438
F-29.650581359863281
F0
tp205
sg18
g19
sg20
g7
sg21
g7
sg22
g7
sg23
g24
sg25
g26
sg27
I0
sg28
I0
sg29
I0
sg30
(F10.830154418945312
F244.38735961914062
F0
tp206
sg31
(F0
F0
F0
tp207
sg32
g24
sg33
g34
sg35
I1
sg36
I0
sg37
(F11951
F4097
F2128
tp208
sg39
Nsg40
g41
sg42
g43
sg44
g24
sg45
I0
sg46
I0
sg47
(lp209
sg49
I1
sg50
I1
sg51
g24
sg52
F1486392732.7080441
sS'x'
I1
sg53
(F8232.0087890625
F1816.2452392578125
F-855.96875
tp210
sg69
(F5.3196010589599609
F182.94639587402344
F0
tp211
ssS'[U:1:40878075]'
p212
(dp213
g4
(lp214
sg6
g7
sg8
g9
sg10
g62
sg12
I0
sg13
g14
sg15
(F6002.80517578125
F-11717.5322265625
F-2159.96875
tp215
sg16
(F0
F0
F0
tp216
sg18
g19
sg20
g7
sg21
g7
sg22
g7
sg23
g24
sg25
g26
sg27
I0
sg28
I0
sg29
I0
sg30
(F-9.5675601959228516
F335.52838325500488
F0
tp217
sg31
(F1868.9776611328125
F51.136299133300781
F49.8896484375
tp218
sg32
g7
sg33
g34
sg35
I1
sg36
I0
sg37
(F8378.45703125
F-8402.759765625
F-1985.957275390625
tp219
sg39
I72
sg40
g41
sg42
g43
sg44
g24
sg45
I0
sg46
I0
sg47
(lp220
sg49
I1
sg50
I1
sg51
g7
sg52
F1486409163.2759409
sS'x'
I1
sg53
(F907.37939453125
F-561.284912109375
F64.03125
tp221
sg69
(F41.522655487060547
F0.64787250757217407
F-0
tp222
ssS'[U:1:183571855]'
p223
(dp224
g4
(lp225
sg6
g7
sg8
g9
sg10
g11
sg12
I0
sg13
g14
sg15
Nsg16
(F0
F0
F0
tp226
sg18
g19
sg20
g7
sg21
g7
sg22
g7
sg23
g24
sg25
g26
sg27
I0
sg28
I0
sg29
I0
sg30
(F-66.649085998535156
F206.95903015136719
F0
tp227
sg31
I0
sg32
g24
sg33
g34
sg35
I1
sg36
I0
sg37
g38
sg39
Nsg40
g41
sg42
g43
sg44
g24
sg45
I0
sg46
I0
sg47
(lp228
sg49
I1
sg50
I1
sg51
g24
sg52
F1486510247.915607
sS'x'
I1
sg53
(F-596.0687255859375
F-8431.6328125
F65.45703125
tp229
ssS'[U:1:93768323]'
p230
(dp231
g4
(lp232
sg6
g7
sg8
g9
sg10
g62
sg12
I0
sg13
g14
sg15
Nsg16
g17
sg18
g19
sg20
g7
sg21
g7
sg22
g7
sg23
g24
sg25
g26
sg27
I0
sg28
I0
sg29
I0
sg30
I00
sg31
I0
sg32
g24
sg33
g34
sg35
I1
sg36
I0
sg37
g38
sg39
Nsg40
g41
sg42
g43
sg44
g24
sg45
I0
sg46
I0
sg47
(lp233
sg49
I1
sg50
I1
sg51
g24
sg52
I0
sS'x'
I1
sg53
g54
ssS'[U:1:82789105]'
p234
(dp235
g4
(lp236
sg6
g7
sg8
g9
sg10
g11
sg12
I0
sg13
g14
sg15
Nsg16
g17
sg18
g19
sg20
g7
sg21
g7
sg22
g7
sg23
g24
sg25
g26
sg27
I0
sg28
I0
sg29
I0
sg30
I00
sg31
I0
sg32
g24
sg33
g34
sg35
I1
sg36
I0
sg37
g38
sg39
Nsg40
g41
sg42
g43
sg44
g24
sg45
I0
sg46
I0
sg47
(lp237
sg49
I1
sg50
I1
sg51
g24
sg52
I0
sS'x'
I1
sg53
g54
ssS'[U:1:359581582]'
p238
(dp239
g4
(lp240
sg6
g7
sg8
g9
sg10
g11
sg12
I0
sg13
g14
sg15
Nsg16
g17
sg18
g19
sg20
g7
sg21
g7
sg22
g7
sg23
g24
sg25
g26
sg27
I0
sg28
I0
sg29
I0
sg30
I00
sg31
I0
sg32
g24
sg33
g34
sg35
I1
sg36
I0
sg37
g38
sg39
Nsg40
g41
sg42
g43
sg44
g24
sg45
I0
sg46
I0
sg47
(lp241
sg49
I1
sg50
I1
sg51
g24
sg52
I0
sS'x'
I1
sg53
g54
ssS'[U:1:172552005]'
p242
(dp243
g4
(lp244
sg6
g7
sg8
g9
sg10
g11
sg12
I0
sg13
g14
sg15
(F15553.5478515625
F-12402.716796875
F-13079.96875
tp245
sg16
(F-9.0352945327758789
F-249.85536193847656
F0
tp246
sg18
g19
sg20
g7
sg21
g7
sg22
g7
sg23
g24
sg25
g26
sg27
I0
sg28
I0
sg29
I0
sg30
(F30.228000640869141
F267.22808074951172
F-0
tp247
sg31
(F-30.482067108154297
F6.7815208435058594
F390.9560546875
tp248
sg32
g7
sg33
g34
sg35
I1
sg36
I0
sg37
(F-10433.9169921875
F9335.2119140625
F-5927.103515625
tp249
sg39
I246
sg40
g41
sg42
g43
sg44
g24
sg45
I0
sg46
I0
sg47
(lp250
sg49
I1
sg50
I1
sg51
g7
sg52
F1486522234.8578911
sS'x'
I1
sg53
(F-7461.02685546875
F10877.31640625
F47.03125
tp251
sg69
(F76.991752624511719
F187.2264404296875
F0
tp252
ssS'[U:1:15826836]'
p253
(dp254
g4
(lp255
sg6
g7
sg8
g9
sg10
g62
sg12
I0
sg13
g14
sg15
(F6354.744140625
F-11847.4091796875
F-2084.54638671875
tp256
sg16
(F0
F0
F0
tp257
sg18
g19
sg20
g7
sg21
g7
sg22
g7
sg23
g24
sg25
g26
sg27
I0
sg28
I0
sg29
I0
sg30
(F24.365114212036133
F220.40473937988281
F0
tp258
sg31
(F0
F0
F0
tp259
sg32
g24
sg33
g34
sg35
I1
sg36
I0
sg37
(F6944.11865234375
F-4839.96875
F-2671.96875
tp260
sg39
I73
sg40
g41
sg42
g43
sg44
g24
sg45
I0
sg46
I0
sg47
(lp261
sg49
I1
sg50
I1
sg51
g24
sg52
F1486410637.8743031
sS'x'
I1
sg53
(F-804.490478515625
F-1382.1708984375
F-159.96875
tp262
sg69
(F-23.430004119873047
F90.330001831054688
F0
tp263
ssS'[U:1:7831698]'
p264
(dp265
g4
(lp266
sg6
g7
sg8
g9
sg10
g11
sg12
I0
sg13
g14
sg15
Nsg16
g17
sg18
g19
sg20
g7
sg21
g7
sg22
g7
sg23
g24
sg25
g26
sg27
I0
sg28
I0
sg29
I0
sg30
I00
sg31
I0
sg32
g24
sg33
g34
sg35
I1
sg36
I0
sg37
g38
sg39
Nsg40
g41
sg42
g43
sg44
g24
sg45
I0
sg46
I0
sg47
(lp267
sg49
I1
sg50
I1
sg51
g24
sg52
I0
sS'x'
I1
sg53
g54
ssS'[U:1:113137488]'
p268
(dp269
g4
(lp270
sg6
g7
sg8
g9
sg10
g11
sg12
I0
sg13
g14
sg15
(F-435.92459106445312
F-7328.03857421875
F64.03125
tp271
sg16
(F0
F-60.186904907226562
F0
tp272
sg18
g19
sg20
g7
sg21
g7
sg22
g7
sg23
g24
sg25
g26
sg27
I0
sg28
I0
sg29
I0
sg30
(F30.805387496948242
F286.65353393554688
F0
tp273
sg31
(F0
F-30.775131225585938
F0
tp274
sg32
g7
sg33
g34
sg35
I1
sg36
I0
sg37
(F-655.96875
F-8308.66796875
F64.03125
tp275
sg39
I234
sg40
g41
sg42
g43
sg44
g24
sg45
I0
sg46
I0
sg47
(lp276
sg49
I1
sg50
I1
sg51
g7
sg52
F1486510670.709682
sS'x'
I1
sg53
(F-655.96875
F-8304.3525390625
F64.03125
tp277
sg69
(F31.019889831542969
F286.65353393554688
F0
tp278
ssS'[U:1:42504738]'
p279
(dp280
g4
(lp281
sg6
g7
sg8
g9
sg10
g11
sg12
I0
sg13
g14
sg15
Nsg16
g17
sg18
g19
sg20
g7
sg21
g7
sg22
g7
sg23
g24
sg25
g26
sg27
I0
sg28
I0
sg29
I0
sg30
I00
sg31
I0
sg32
g24
sg33
g34
sg35
I1
sg36
I0
sg37
g38
sg39
Nsg40
g41
sg42
g43
sg44
g24
sg45
I0
sg46
I0
sg47
(lp282
sg49
I1
sg50
I1
sg51
g24
sg52
I0
sS'x'
I1
sg53
g54
ssS'[U:1:187056330]'
p283
(dp284
g4
(lp285
sg6
g7
sg8
g9
sg10
g11
sg12
I0
sg13
g14
sg15
(F3040.038818359375
F409.776123046875
F7872.03125
tp286
sg16
g17
sg18
g19
sg20
g7
sg21
g7
sg22
g7
sg23
g24
sg25
g26
sg27
I0
sg28
I0
sg29
I0
sg30
I00
sg31
I0
sg32
g7
sg33
g34
sg35
I1
sg36
I0
sg37
g38
sg39
I167
sg40
g41
sg42
g43
sg44
g24
sg45
I0
sg46
I0
sg47
(lp287
sg49
I1
sg50
I1
sg51
g24
sg52
I0
sS'x'
I1
sg53
g54
ssS'[U:1:389831235]'
p288
(dp289
g4
(lp290
sg6
g7
sg8
g9
sg10
g11
sg12
I0
sg13
g14
sg15
(F-3686.90576171875
F-8456.654296875
F2072.237548828125
tp291
sg16
(F1377.1016845703125
F-147.16511535644531
F481.5469970703125
tp292
sg18
g19
sg20
g7
sg21
g7
sg22
g7
sg23
g24
sg25
g26
sg27
I0
sg28
I0
sg29
I0
sg30
(F36.002349853515625
F355.50077104568481
F0
tp293
sg31
(F2572.7314453125
F-315.75808715820312
F-220.42745971679688
tp294
sg32
g7
sg33
g34
sg35
I1
sg36
I0
sg37
(F6863.90234375
F-8511.259765625
F2011.5235595703125
tp295
sg39
I113
sg40
g41
sg42
g43
sg44
g24
sg45
I0
sg46
I0
sg47
(lp296
sg49
I1
sg50
I1
sg51
g7
sg52
F1486448549.8729091
sS'x'
I1
sg53
(F-9300.9375
F-8473.486328125
F4126.7451171875
tp297
sg69
(F17.728736877441406
F353.66608333587646
F0
tp298
ssS'[U:1:87606245]'
p299
(dp300
g4
(lp301
sg6
g7
sg8
g9
sg10
g11
sg12
I0
sg13
g14
sg15
Nsg16
g17
sg18
g19
sg20
g7
sg21
g7
sg22
g7
sg23
g24
sg25
g26
sg27
I0
sg28
I0
sg29
I0
sg30
I00
sg31
I0
sg32
g24
sg33
g34
sg35
I1
sg36
I0
sg37
g38
sg39
Nsg40
g41
sg42
g43
sg44
g24
sg45
I0
sg46
I0
sg47
(lp302
sg49
I1
sg50
I1
sg51
g24
sg52
I0
sS'x'
I1
sg53
g54
ssS'[U:1:27811763]'
p303
(dp304
g4
(lp305
sg6
g7
sg8
g9
sg10
g11
sg12
I0
sg13
g14
sg15
Nsg16
g17
sg18
g19
sg20
g7
sg21
g7
sg22
g7
sg23
g24
sg25
g26
sg27
I0
sg28
I0
sg29
I0
sg30
I00
sg31
I0
sg32
g24
sg33
g34
sg35
I1
sg36
I0
sg37
g38
sg39
Nsg40
g41
sg42
g43
sg44
g24
sg45
I0
sg46
I0
sg47
(lp306
sg49
I1
sg50
I1
sg51
g24
sg52
I0
sS'x'
I1
sg53
g54
ssS'[U:1:281539016]'
p307
(dp308
g4
(lp309
sg6
g7
sg8
g9
sg10
g11
sg12
I0
sg13
g14
sg15
Nsg16
g17
sg18
g19
sg20
g7
sg21
g7
sg22
g7
sg23
g24
sg25
g26
sg27
I0
sg28
I0
sg29
I0
sg30
I00
sg31
I0
sg32
g24
sg33
g34
sg35
I1
sg36
I0
sg37
g38
sg39
Nsg40
g41
sg42
g43
sg44
g24
sg45
I0
sg46
I0
sg47
(lp310
sg49
I1
sg50
I1
sg51
g24
sg52
I0
sS'x'
I1
sg53
g54
ssS'[U:1:303379730]'
p311
(dp312
g4
(lp313
sg6
g7
sg8
g9
sg10
g11
sg12
I0
sg13
g14
sg15
Nsg16
g17
sg18
g19
sg20
g7
sg21
g7
sg22
g7
sg23
g24
sg25
g26
sg27
I0
sg28
I0
sg29
I0
sg30
I00
sg31
I0
sg32
g24
sg33
g34
sg35
I1
sg36
I0
sg37
g38
sg39
Nsg40
g41
sg42
g43
sg44
g24
sg45
I0
sg46
I0
sg47
(lp314
sg49
I1
sg50
I1
sg51
g24
sg52
I0
sS'x'
I1
sg53
g54
ssS'[U:1:117908040]'
p315
(dp316
g4
(lp317
sg6
g7
sg8
g9
sg10
g11
sg12
I0
sg13
g14
sg15
(F4666.0830078125
F6073.7900390625
F-454.53134155273438
tp318
sg16
(F0
F0
F0
tp319
sg18
g19
sg20
g7
sg21
g7
sg22
g24
sg23
g24
sg25
g26
sg27
I0
sg28
I0
sg29
I0
sg30
(F2.5057556629180908
F96.301559448242188
F0
tp320
sg31
(F0
F0
F0
tp321
sg32
g24
sg33
g34
sg35
I1
sg36
I0
sg37
(F-15014.7802734375
F-10551.4697265625
F1904.021240234375
tp322
sg39
I145
sg40
g41
sg42
g43
sg44
g24
sg45
I0
sg46
I0
sg47
(lp323
sg49
I1
sg50
I1
sg51
g24
sg52
F1486493274.3653171
sS'x'
I1
sg53
(F3541.029541015625
F-5563.03564453125
F-4859.96875
tp324
sg69
(F-6.9278006553649902
F88.35394287109375
F0
tp325
ssS'[U:1:10671076]'
p326
(dp327
g4
(lp328
sg6
g7
sg8
g9
sg10
g11
sg12
I0
sg13
g14
sg15
(F-6750.38232421875
F4334.39697265625
F592.103759765625
tp329
sg16
g17
sg18
g19
sg20
g7
sg21
g7
sg22
g7
sg23
g24
sg25
g26
sg27
I0
sg28
I0
sg29
I0
sg30
I00
sg31
I0
sg32
g24
sg33
g34
sg35
I1
sg36
I0
sg37
g38
sg39
I146
sg40
g41
sg42
g43
sg44
g24
sg45
I0
sg46
I0
sg47
(lp330
sg49
I1
sg50
I1
sg51
g24
sg52
I0
sS'x'
I1
sg53
g54
ssS'[U:1:45191975]'
p331
(dp332
g4
(lp333
sg6
g7
sg8
g9
sg10
g62
sg12
I0
sg13
g14
sg15
Nsg16
g17
sg18
g19
sg20
g7
sg21
g7
sg22
g7
sg23
g24
sg25
g26
sg27
I0
sg28
I0
sg29
I0
sg30
I00
sg31
I0
sg32
g24
sg33
g34
sg35
I1
sg36
I0
sg37
g38
sg39
Nsg40
g41
sg42
g43
sg44
g24
sg45
I0
sg46
I0
sg47
(lp334
sg49
I1
sg50
I1
sg51
g24
sg52
I0
sS'x'
I1
sg53
g54
ssS'[U:1:64059295]'
p335
(dp336
g4
(lp337
sg6
g7
sg8
g9
sg10
g11
sg12
I0
sg13
g14
sg15
Nsg16
g17
sg18
g19
sg20
g7
sg21
g7
sg22
g7
sg23
g24
sg25
g26
sg27
I0
sg28
I0
sg29
I0
sg30
I00
sg31
I0
sg32
g24
sg33
g34
sg35
I1
sg36
I0
sg37
g38
sg39
Nsg40
g41
sg42
g43
sg44
g24
sg45
I0
sg46
I0
sg47
(lp338
sg49
I1
sg50
I1
sg51
g24
sg52
I0
sS'x'
I1
sg53
g54
ssS'[U:1:9982807]'
p339
(dp340
g4
(lp341
sg6
g7
sg8
g9
sg10
g11
sg12
I0
sg13
g14
sg15
Nsg16
(F-55.579994201660156
F-1275.6893310546875
F-176.47062683105469
tp342
sg18
g19
sg20
g7
sg21
g7
sg22
g7
sg23
g24
sg25
g26
sg27
I0
sg28
I0
sg29
I0
sg30
(F36.079963684082031
F268.85153198242188
F0
tp343
sg31
I0
sg32
g7
sg33
g34
sg35
I1
sg36
I0
sg37
g38
sg39
Nsg40
g41
sg42
g43
sg44
g24
sg45
I0
sg46
I0
sg47
(lp344
sg49
I1
sg50
I1
sg51
g7
sg52
F1486493562.4961219
sS'x'
I1
sg53
(F3577.074951171875
F-6193.9658203125
F-4753.4853515625
tp345
ssS'[U:1:137785054]'
p346
(dp347
g4
(lp348
sg6
g7
sg8
g9
sg10
g11
sg12
I0
sg13
g14
sg15
Nsg16
(F0
F0
F0
tp349
sg18
g19
sg20
g7
sg21
g7
sg22
g7
sg23
g24
sg25
g26
sg27
I0
sg28
I0
sg29
I0
sg30
(F12.276175498962402
F178.79084777832031
F0
tp350
sg31
(F0
F0
F0
tp351
sg32
g24
sg33
g34
sg35
I1
sg36
I0
sg37
(F-786.6712646484375
F-5747.6787109375
F64.03125
tp352
sg39
Nsg40
g41
sg42
g43
sg44
g24
sg45
I0
sg46
I0
sg47
(lp353
sg49
I1
sg50
I1
sg51
g24
sg52
F1486484847.717953
sS'x'
I1
sg53
(F-616.60260009765625
F-5748.65478515625
F64.03125
tp354
sg69
(F-14.05757999420166
F174.76530456542969
F0
tp355
ssS'[U:1:210083075]'
p356
(dp357
g4
(lp358
sg6
g7
sg8
g9
sg10
g11
sg12
I0
sg13
g14
sg15
(F-894.62261962890625
F-4924.75537109375
F-3095.96875
tp359
sg16
(F0
F0
F0
tp360
sg18
g19
sg20
g7
sg21
g7
sg22
g7
sg23
g24
sg25
g26
sg27
I0
sg28
I0
sg29
I0
sg30
(F5.1775474548339844
F94.858566284179688
F0
tp361
sg31
(F0
F0
F0
tp362
sg32
g24
sg33
g34
sg35
I1
sg36
I0
sg37
(F1728
F-9558
F-14007.3779296875
tp363
sg39
I245
sg40
g41
sg42
g43
sg44
g24
sg45
I0
sg46
I0
sg47
(lp364
sg49
I1
sg50
I1
sg51
g24
sg52
F1486522238.0343449
sS'x'
I1
sg53
(F-7457.55224609375
F10660.7685546875
F47.03125
tp365
sg69
(F-1.5173401832580566
F270.87850189208984
F0
tp366
ssS'[U:1:135236385]'
p367
(dp368
g4
(lp369
sg6
g7
sg8
g9
sg10
g11
sg12
I0
sg13
g14
sg15
Nsg16
g17
sg18
g19
sg20
g7
sg21
g7
sg22
g7
sg23
g24
sg25
g26
sg27
I0
sg28
I0
sg29
I0
sg30
I00
sg31
I0
sg32
g24
sg33
g34
sg35
I1
sg36
I0
sg37
g38
sg39
Nsg40
g41
sg42
g43
sg44
g24
sg45
I0
sg46
I0
sg47
(lp370
sg49
I1
sg50
I1
sg51
g24
sg52
I0
sS'x'
I1
sg53
g54
ssS'[U:1:356056054]'
p371
(dp372
g4
(lp373
sg6
g7
sg8
g9
sg10
g62
sg12
I0
sg13
g14
sg15
Nsg16
g17
sg18
g19
sg20
g7
sg21
g7
sg22
g7
sg23
g24
sg25
g26
sg27
I0
sg28
I0
sg29
I0
sg30
I00
sg31
I0
sg32
g24
sg33
g34
sg35
I1
sg36
I0
sg37
g38
sg39
Nsg40
g41
sg42
g43
sg44
g24
sg45
I0
sg46
I0
sg47
(lp374
sg49
I1
sg50
I1
sg51
g24
sg52
I0
sS'x'
I1
sg53
g54
ssS'[U:1:59462854]'
p375
(dp376
g4
(lp377
sg6
g7
sg8
g9
sg10
g11
sg12
I0
sg13
g14
sg15
Nsg16
(F0
F0
F0
tp378
sg18
g19
sg20
g7
sg21
g7
sg22
g7
sg23
g24
sg25
g26
sg27
I0
sg28
I0
sg29
I0
sg30
(F5.8024086952209473
F272.03281402587891
F0
tp379
sg31
I0
sg32
g24
sg33
g34
sg35
I1
sg36
I0
sg37
g38
sg39
Nsg40
g41
sg42
g43
sg44
g24
sg45
I0
sg46
I0
sg47
(lp380
sg49
I1
sg50
I1
sg51
g24
sg52
F1486413685.3380671
sS'x'
I1
sg53
(F-7378.09619140625
F-600.54827880859375
F-13135.96875
tp381
ssS'[U:1:54943235]'
p382
(dp383
g4
(lp384
sg6
g7
sg8
g9
sg10
g11
sg12
I0
sg13
g14
sg15
Nsg16
g17
sg18
g19
sg20
g7
sg21
g7
sg22
g7
sg23
g24
sg25
g26
sg27
I0
sg28
I0
sg29
I0
sg30
I00
sg31
I0
sg32
g24
sg33
g34
sg35
I1
sg36
I0
sg37
g38
sg39
Nsg40
g41
sg42
g43
sg44
g24
sg45
I0
sg46
I0
sg47
(lp385
sg49
I1
sg50
I1
sg51
g24
sg52
I0
sS'x'
I1
sg53
g54
ss.